target datalayout = "e-m:e-p270:32:32-p271:32:32-p272:64:64-i64:64-i128:128-f80:128-n8:16:32:64-S128"
target triple = "x86_64-pc-linux-gnu"

%class.QString = type { %struct.QArrayDataPointer }
%struct.QArrayDataPointer = type { ptr, ptr, i64 }
%class.QFlags.31 = type { i32 }
%class.QPen = type { ptr }
%class.QColor = type <{ i32, %"union.QColor::CT", [2 x i8] }>
%"union.QColor::CT" = type { %struct.anon }
%struct.anon = type { i16, i16, i16, i16, i16 }
%class.QExplicitlySharedDataPointer.32 = type { ptr }
%class.QFont = type <{ %class.QExplicitlySharedDataPointer.32, i32, [4 x i8] }>
%class.QVariant = type { %"struct.QVariant::Private" }
%"struct.QVariant::Private" = type { %union.anon, i64 }
%union.anon = type { ptr, [16 x i8] }
%class.SequenceDialog = type <{ %class.WiresharkDialog.base, [3 x i8], ptr, ptr, ptr, i32, i32, double, i32, i8, [3 x i8], ptr, ptr, ptr, %class.QMenu, ptr, ptr, ptr, ptr, %class.QPointer, i8, [7 x i8] }>
%class.WiresharkDialog.base = type <{ %class.GeometryStateDialog, ptr, i8, [7 x i8], %class.QString, %class.QList, i32, i8 }>
%class.GeometryStateDialog = type { %class.QDialog, %class.QString, ptr }
%class.QDialog = type { %class.QWidget }
%class.QWidget = type { %class.QObject, %class.QPaintDevice.base, ptr }
%class.QObject = type { ptr, %class.QScopedPointer }
%class.QScopedPointer = type { ptr }
%class.QPaintDevice.base = type <{ ptr, i16 }>
%class.QList = type { %struct.QArrayDataPointer.0 }
%struct.QArrayDataPointer.0 = type { ptr, ptr, i64 }
%class.QMenu = type { %class.QWidget }
%class.QPointer = type { %class.QWeakPointer }
%class.QWeakPointer = type { ptr, ptr }
%class.Ui_SequenceDialog = type { ptr, ptr, ptr, ptr, ptr, ptr, ptr, ptr, ptr, ptr, ptr, ptr, ptr, ptr, ptr, ptr, ptr, ptr, ptr, ptr, ptr, ptr, ptr, ptr, ptr, ptr, ptr, ptr, ptr, ptr, ptr, ptr, ptr, ptr, ptr, ptr, ptr, ptr }
%class.QCustomPlot = type <{ %class.QWidget, ptr, ptr, ptr, ptr, ptr, %class.QRect, double, ptr, i8, [7 x i8], %class.QList.9, %class.QList.13, %class.QList.17, %class.QList.21, %class.QFlags, %class.QFlags, %class.QFlags.25, i32, i8, [7 x i8], %class.QBrush, %class.QPixmap, %class.QPixmap, i8, [3 x i8], i32, ptr, %class.QFlags.26, i32, i32, [4 x i8], ptr, i8, [7 x i8], %class.QList.27, %class.QPoint, i8, [7 x i8], %class.QPointer.1, %class.QPointer.1, %class.QVariant, %class.QVariant, i8, i8, [6 x i8], double, double, i32, %class.QFlags, i8, [7 x i8] }>
%class.QRect = type { i32, i32, i32, i32 }
%class.QList.9 = type { %struct.QArrayDataPointer.12 }
%struct.QArrayDataPointer.12 = type { ptr, ptr, i64 }
%class.QList.13 = type { %struct.QArrayDataPointer.16 }
%struct.QArrayDataPointer.16 = type { ptr, ptr, i64 }
%class.QList.17 = type { %struct.QArrayDataPointer.20 }
%struct.QArrayDataPointer.20 = type { ptr, ptr, i64 }
%class.QList.21 = type { %struct.QArrayDataPointer.24 }
%struct.QArrayDataPointer.24 = type { ptr, ptr, i64 }
%class.QFlags.25 = type { i32 }
%class.QBrush = type { %"class.std::unique_ptr" }
%"class.std::unique_ptr" = type { %"struct.std::__uniq_ptr_data" }
%"struct.std::__uniq_ptr_data" = type { %"class.std::__uniq_ptr_impl" }
%"class.std::__uniq_ptr_impl" = type { %"class.std::tuple" }
%"class.std::tuple" = type { %"struct.std::_Tuple_impl" }
%"struct.std::_Tuple_impl" = type { %"struct.std::_Head_base.3" }
%"struct.std::_Head_base.3" = type { ptr }
%class.QPixmap = type { %class.QPaintDevice.base, %class.QExplicitlySharedDataPointer }
%class.QExplicitlySharedDataPointer = type { ptr }
%class.QFlags.26 = type { i32 }
%class.QList.27 = type { %struct.QArrayDataPointer.30 }
%struct.QArrayDataPointer.30 = type { ptr, ptr, i64 }
%class.QPoint = type { i32, i32 }
%class.QPointer.1 = type { %class.QWeakPointer }
%class.QFlags = type { i32 }
%class.QCPLayerable.base = type <{ %class.QObject, i8, [7 x i8], ptr, %class.QPointer.1, ptr, i8 }>
%class.QCPAxis = type { %class.QCPLayerable.base, i32, ptr, i32, i32, %class.QFlags.31, %class.QFlags.31, %class.QPen, %class.QPen, %class.QString, %class.QFont, %class.QFont, %class.QColor, %class.QColor, i8, [7 x i8], %class.QFont, %class.QFont, %class.QColor, %class.QColor, i32, %struct.QLatin1Char, i8, i8, i8, %class.QPen, %class.QPen, %class.QPen, %class.QPen, %class.QCPRange, i8, i32, ptr, ptr, %class.QSharedPointer, %class.QList.37, %class.QList.41, %class.QList.37, i8, i32, i8, %class.QCPRange, %class.QFlags, %class.QFlags }
%struct.QLatin1Char = type { i8 }
%class.QSharedPointer = type { ptr, ptr }
%class.QList.41 = type { %struct.QArrayDataPointer.44 }
%struct.QArrayDataPointer.44 = type { ptr, ptr, i64 }
%class.QList.37 = type { %struct.QArrayDataPointer.40 }
%struct.QArrayDataPointer.40 = type { ptr, ptr, i64 }
%class.QCPRange = type { double, double }

; Function Attrs: mustprogress nounwind null_pointer_is_valid sspstrong uwtable
define linkonce_odr noundef double @_ZNK8QCPRange4sizeEv(ptr noundef align 8 dereferenceable_or_null(16) %0) #3 comdat align 2 {
  %2 = alloca ptr, align 8
  store ptr %0, ptr %2, align 8
  %3 = load ptr, ptr %2, align 8
  %4 = getelementptr inbounds nuw %class.QCPRange, ptr %3, i32 0, i32 1
  %5 = load double, ptr %4, align 8
  %6 = getelementptr inbounds nuw %class.QCPRange, ptr %3, i32 0, i32 0
  %7 = load double, ptr %6, align 8
  %8 = fsub double %5, %7
  ret double %8
}

; Function Attrs: inlinehint mustprogress nounwind null_pointer_is_valid sspstrong uwtable
define linkonce_odr noundef double @_Z4qAbsIdET_RKS0_(ptr noundef align 8 dereferenceable(8) %0) #6 comdat {
  %2 = alloca ptr, align 8
  store ptr %0, ptr %2, align 8
  %3 = load ptr, ptr %2, align 8
  %4 = load double, ptr %3, align 8
  %5 = fcmp oge double %4, 0.000000e+00
  br i1 %5, label %6, label %9

6:                                                ; preds = %1
  %7 = load ptr, ptr %2, align 8
  %8 = load double, ptr %7, align 8
  br label %13

9:                                                ; preds = %1
  %10 = load ptr, ptr %2, align 8
  %11 = load double, ptr %10, align 8
  %12 = fneg double %11
  br label %13

13:                                               ; preds = %9, %6
  %14 = phi double [ %8, %6 ], [ %12, %9 ]
  ret double %14
}

; Function Attrs: mustprogress nounwind null_pointer_is_valid sspstrong uwtable
define linkonce_odr noundef double @_ZNK8QCPRange6centerEv(ptr noundef align 8 dereferenceable_or_null(16) %0) #3 comdat align 2 {
  %2 = alloca ptr, align 8
  store ptr %0, ptr %2, align 8
  %3 = load ptr, ptr %2, align 8
  %4 = getelementptr inbounds nuw %class.QCPRange, ptr %3, i32 0, i32 1
  %5 = load double, ptr %4, align 8
  %6 = getelementptr inbounds nuw %class.QCPRange, ptr %3, i32 0, i32 0
  %7 = load double, ptr %6, align 8
  %8 = fadd double %5, %7
  %9 = fmul double %8, 5.000000e-01
  ret double %9
}

; Function Attrs: mustprogress nounwind null_pointer_is_valid sspstrong uwtable
define linkonce_odr { double, double } @_ZNK7QCPAxis5rangeEv(ptr noundef align 8 dereferenceable_or_null(472) %0) #3 comdat align 2 {
  %2 = alloca %class.QCPRange, align 8
  %3 = alloca ptr, align 8
  store ptr %0, ptr %3, align 8
  %4 = load ptr, ptr %3, align 8
  %5 = getelementptr inbounds nuw %class.QCPAxis, ptr %4, i32 0, i32 29
  call void @llvm.memcpy.p0.p0.i64(ptr align 8 %2, ptr align 8 %5, i64 16, i1 false)
  %6 = load { double, double }, ptr %2, align 8
  ret { double, double } %6
}

; Function Attrs: mustprogress null_pointer_is_valid sspstrong uwtable
define void @_ZN14SequenceDialog17vScrollBarChangedEi(ptr noundef align 8 dereferenceable_or_null(305) %0, i32 noundef %1) #0 align 2 {
  %3 = alloca ptr, align 8
  %4 = alloca i32, align 4
  %5 = alloca double, align 8
  %6 = alloca %class.QCPRange, align 8
  %7 = alloca %class.QCPRange, align 8
  store ptr %0, ptr %3, align 8
  store i32 %1, ptr %4, align 4
  %8 = load ptr, ptr %3, align 8
  call void @llvm.lifetime.start.p0(i64 8, ptr %5) #25
  call void @llvm.lifetime.start.p0(i64 16, ptr %6) #25
  %9 = getelementptr inbounds nuw %class.SequenceDialog, ptr %8, i32 0, i32 2
  %10 = load ptr, ptr %9, align 8
  %11 = getelementptr inbounds nuw %class.Ui_SequenceDialog, ptr %10, i32 0, i32 22
  %12 = load ptr, ptr %11, align 8
  %13 = getelementptr inbounds nuw %class.QCustomPlot, ptr %12, i32 0, i32 2
  %14 = load ptr, ptr %13, align 8
  %15 = call { double, double } @_ZNK7QCPAxis5rangeEv(ptr noundef align 8 dereferenceable_or_null(472) %14)
  %16 = getelementptr inbounds nuw { double, double }, ptr %6, i32 0, i32 0
  %17 = extractvalue { double, double } %15, 0
  store double %17, ptr %16, align 8
  %18 = getelementptr inbounds nuw { double, double }, ptr %6, i32 0, i32 1
  %19 = extractvalue { double, double } %15, 1
  store double %19, ptr %18, align 8
  %20 = call noundef double @_ZNK8QCPRange6centerEv(ptr noundef align 8 dereferenceable_or_null(16) %6)
  %21 = load i32, ptr %4, align 4
  %22 = sitofp i32 %21 to double
  %23 = fdiv double %22, 1.000000e+02
  %24 = fsub double %20, %23
  store double %24, ptr %5, align 8
  %25 = call noundef double @_Z4qAbsIdET_RKS0_(ptr noundef align 8 dereferenceable(8) %5)
  %26 = fcmp ogt double %25, 1.000000e-02
  call void @llvm.lifetime.end.p0(i64 16, ptr %6) #25
  call void @llvm.lifetime.end.p0(i64 8, ptr %5) #25
  br i1 %26, label %27, label %53

27:                                               ; preds = %2
  %28 = getelementptr inbounds nuw %class.SequenceDialog, ptr %8, i32 0, i32 2
  %29 = load ptr, ptr %28, align 8
  %30 = getelementptr inbounds nuw %class.Ui_SequenceDialog, ptr %29, i32 0, i32 22
  %31 = load ptr, ptr %30, align 8
  %32 = getelementptr inbounds nuw %class.QCustomPlot, ptr %31, i32 0, i32 2
  %33 = load ptr, ptr %32, align 8
  %34 = load i32, ptr %4, align 4
  %35 = sitofp i32 %34 to double
  %36 = fdiv double %35, 1.000000e+02
  call void @llvm.lifetime.start.p0(i64 16, ptr %7) #25
  %37 = getelementptr inbounds nuw %class.SequenceDialog, ptr %8, i32 0, i32 2
  %38 = load ptr, ptr %37, align 8
  %39 = getelementptr inbounds nuw %class.Ui_SequenceDialog, ptr %38, i32 0, i32 22
  %40 = load ptr, ptr %39, align 8
  %41 = getelementptr inbounds nuw %class.QCustomPlot, ptr %40, i32 0, i32 2
  %42 = load ptr, ptr %41, align 8
  %43 = call { double, double } @_ZNK7QCPAxis5rangeEv(ptr noundef align 8 dereferenceable_or_null(472) %42)
  %44 = getelementptr inbounds nuw { double, double }, ptr %7, i32 0, i32 0
  %45 = extractvalue { double, double } %43, 0
  store double %45, ptr %44, align 8
  %46 = getelementptr inbounds nuw { double, double }, ptr %7, i32 0, i32 1
  %47 = extractvalue { double, double } %43, 1
  store double %47, ptr %46, align 8
  %48 = call noundef double @_ZNK8QCPRange4sizeEv(ptr noundef align 8 dereferenceable_or_null(16) %7)
  call void @_ZN7QCPAxis8setRangeEddN2Qt13AlignmentFlagE(ptr noundef align 8 dereferenceable_or_null(472) %33, double noundef %36, double noundef %48, i32 noundef 132)
  call void @llvm.lifetime.end.p0(i64 16, ptr %7) #25
  %49 = getelementptr inbounds nuw %class.SequenceDialog, ptr %8, i32 0, i32 2
  %50 = load ptr, ptr %49, align 8
  %51 = getelementptr inbounds nuw %class.Ui_SequenceDialog, ptr %50, i32 0, i32 22
  %52 = load ptr, ptr %51, align 8
  call void @_ZN11QCustomPlot6replotENS_15RefreshPriorityE(ptr noundef align 8 dereferenceable_or_null(513) %52, i32 noundef 3)
  br label %53

53:                                               ; preds = %27, %2
  ret void
}