; Function Attrs: mustprogress null_pointer_is_valid sspstrong uwtable
define void @_ZN14SequenceDialog17vScrollBarChangedEi(ptr noundef readonly align 8 captures(none) dereferenceable_or_null(305) %0, i32 noundef %1) local_unnamed_addr #0 align 2 {
  %3 = getelementptr inbounds nuw i8, ptr %0, i64 144
  %4 = load ptr, ptr %3, align 8
  %5 = getelementptr inbounds nuw i8, ptr %4, i64 176
  %6 = load ptr, ptr %5, align 8
  %7 = getelementptr inbounds nuw i8, ptr %6, i64 48
  %8 = load ptr, ptr %7, align 8
  %9 = getelementptr inbounds nuw i8, ptr %8, i64 304
  %.sroa.0.0.copyload.i = load double, ptr %9, align 8
  %.sroa.2.0..sroa_idx.i = getelementptr inbounds nuw i8, ptr %8, i64 312
  %.sroa.2.0.copyload.i = load double, ptr %.sroa.2.0..sroa_idx.i, align 8
  %10 = fadd double %.sroa.0.0.copyload.i, %.sroa.2.0.copyload.i
  %11 = fmul double %10, 5.000000e-01
  %12 = sitofp i32 %1 to double
  %13 = fdiv double %12, 1.000000e+02
  %14 = fsub double %11, %13
  %15 = fcmp ult double %14, 0.000000e+00
  %16 = fneg double %14
  %17 = select i1 %15, double %16, double %14
  %18 = fcmp ogt double %17, 1.000000e-02
  br i1 %18, label %19, label %24

19:                                               ; preds = %2
  %20 = fsub double %.sroa.2.0.copyload.i, %.sroa.0.0.copyload.i
  tail call void @_ZN7QCPAxis8setRangeEddN2Qt13AlignmentFlagE(ptr noundef align 8 dereferenceable_or_null(472) %8, double noundef %13, double noundef %20, i32 noundef 132)
  %21 = load ptr, ptr %3, align 8
  %22 = getelementptr inbounds nuw i8, ptr %21, i64 176
  %23 = load ptr, ptr %22, align 8
  tail call void @_ZN11QCustomPlot6replotENS_15RefreshPriorityE(ptr noundef align 8 dereferenceable_or_null(513) %23, i32 noundef 3)
  br label %24

24:                                               ; preds = %19, %2
  ret void
}